; Function Attrs: mustprogress nounwind uwtable
define void @_ZN7rocksdb13SstFileReaderD2Ev(ptr noundef nonnull align 8 dereferenceable(8) %0) unnamed_addr #1 align 2 personality ptr @__gxx_personality_v0 {
  %2 = load ptr, ptr %0, align 8, !tbaa !18
  %.not.i = icmp eq ptr %2, null
  br i1 %.not.i, label %_ZNSt10unique_ptrIN7rocksdb13SstFileReader3RepESt14default_deleteIS2_EED2Ev.exit, label %3

3:                                                ; preds = %1
  tail call void @_ZNKSt14default_deleteIN7rocksdb13SstFileReader3RepEEclEPS2_(ptr noundef nonnull align 8 dereferenceable(8) %0, ptr noundef nonnull %2)
  br label %_ZNSt10unique_ptrIN7rocksdb13SstFileReader3RepESt14default_deleteIS2_EED2Ev.exit

_ZNSt10unique_ptrIN7rocksdb13SstFileReader3RepESt14default_deleteIS2_EED2Ev.exit: ; preds = %1, %3
  store ptr null, ptr %0, align 8, !tbaa !18
  ret void
}